; Function Attrs: mustprogress uwtable
define hidden void @_ZN4lean12update_mdataERKNS_4exprES2_(ptr dead_on_unwind noalias writable writeonly sret(%"class.lean::expr") align 8 captures(none) initializes((0, 8)) %0, ptr noundef nonnull readonly align 8 captures(none) dereferenceable(8) %1, ptr noundef nonnull readonly align 8 captures(none) dereferenceable(8) %2) local_unnamed_addr #0 {
  %4 = load ptr, ptr %1, align 8, !tbaa !10
  %5 = getelementptr inbounds nuw i8, ptr %4, i64 16
  %6 = load ptr, ptr %5, align 8, !tbaa !10
  %7 = load ptr, ptr %2, align 8, !tbaa !10
  %8 = icmp eq ptr %6, %7
  br i1 %8, label %32, label %9

9:                                                ; preds = %3
  %10 = getelementptr inbounds nuw i8, ptr %4, i64 8
  tail call void @llvm.experimental.noalias.scope.decl(metadata !95)
  %11 = load ptr, ptr %10, align 8, !tbaa !10, !noalias !95
  %12 = ptrtoint ptr %11 to i64
  %13 = and i64 %12, 1
  %.not.i.i.i = icmp eq i64 %13, 0
  br i1 %.not.i.i.i, label %14, label %_ZNK4lean10object_ref10to_obj_argEv.exit.i

14:                                               ; preds = %9
  %.val.i.i.i.i = load i32, ptr %11, align 4, !tbaa !21, !noalias !95
  %15 = icmp sgt i32 %.val.i.i.i.i, 0
  br i1 %15, label %16, label %18, !prof !24

16:                                               ; preds = %14
  %17 = add nuw nsw i32 %.val.i.i.i.i, 1
  store i32 %17, ptr %11, align 4, !tbaa !21, !noalias !95
  br label %_ZNK4lean10object_ref10to_obj_argEv.exit.i

18:                                               ; preds = %14
  %.not.i.i.i.i = icmp eq i32 %.val.i.i.i.i, 0
  br i1 %.not.i.i.i.i, label %_ZNK4lean10object_ref10to_obj_argEv.exit.i, label %19

19:                                               ; preds = %18
  tail call void @lean_inc_ref_cold(ptr noundef nonnull %11), !noalias !95
  %.pre.i.i = load ptr, ptr %10, align 8, !tbaa !10, !noalias !95
  %.pre = load ptr, ptr %2, align 8, !tbaa !10, !noalias !95
  br label %_ZNK4lean10object_ref10to_obj_argEv.exit.i

_ZNK4lean10object_ref10to_obj_argEv.exit.i:       ; preds = %19, %18, %16, %9
  %20 = phi ptr [ %7, %9 ], [ %7, %16 ], [ %7, %18 ], [ %.pre, %19 ]
  %21 = phi ptr [ %11, %9 ], [ %11, %16 ], [ %11, %18 ], [ %.pre.i.i, %19 ]
  %22 = ptrtoint ptr %20 to i64
  %23 = and i64 %22, 1
  %.not.i.i2.i = icmp eq i64 %23, 0
  br i1 %.not.i.i2.i, label %24, label %_ZN4lean8mk_mdataERKNS_8list_refINS_8pair_refINS_4nameENS_10data_valueEEEEERKNS_4exprE.exit

24:                                               ; preds = %_ZNK4lean10object_ref10to_obj_argEv.exit.i
  %.val.i.i.i3.i = load i32, ptr %20, align 4, !tbaa !21, !noalias !95
  %25 = icmp sgt i32 %.val.i.i.i3.i, 0
  br i1 %25, label %26, label %28, !prof !24

26:                                               ; preds = %24
  %27 = add nuw nsw i32 %.val.i.i.i3.i, 1
  store i32 %27, ptr %20, align 4, !tbaa !21, !noalias !95
  br label %_ZN4lean8mk_mdataERKNS_8list_refINS_8pair_refINS_4nameENS_10data_valueEEEEERKNS_4exprE.exit

28:                                               ; preds = %24
  %.not.i.i.i4.i = icmp eq i32 %.val.i.i.i3.i, 0
  br i1 %.not.i.i.i4.i, label %_ZN4lean8mk_mdataERKNS_8list_refINS_8pair_refINS_4nameENS_10data_valueEEEEERKNS_4exprE.exit, label %29

29:                                               ; preds = %28
  tail call void @lean_inc_ref_cold(ptr noundef nonnull %20), !noalias !95
  %.pre.i5.i = load ptr, ptr %2, align 8, !tbaa !10, !noalias !95
  br label %_ZN4lean8mk_mdataERKNS_8list_refINS_8pair_refINS_4nameENS_10data_valueEEEEERKNS_4exprE.exit

_ZN4lean8mk_mdataERKNS_8list_refINS_8pair_refINS_4nameENS_10data_valueEEEEERKNS_4exprE.exit: ; preds = %_ZNK4lean10object_ref10to_obj_argEv.exit.i, %26, %28, %29
  %30 = phi ptr [ %20, %_ZNK4lean10object_ref10to_obj_argEv.exit.i ], [ %20, %26 ], [ %20, %28 ], [ %.pre.i5.i, %29 ]
  %31 = tail call ptr @lean_expr_mk_mdata(ptr noundef %21, ptr noundef %30), !noalias !95
  store ptr %31, ptr %0, align 8, !tbaa !10, !alias.scope !95
  br label %_ZN4lean4exprC2ERKS0_.exit

32:                                               ; preds = %3
  store ptr %4, ptr %0, align 8, !tbaa !10
  %33 = ptrtoint ptr %4 to i64
  %34 = and i64 %33, 1
  %.not.i.i.i5 = icmp eq i64 %34, 0
  br i1 %.not.i.i.i5, label %35, label %_ZN4lean4exprC2ERKS0_.exit

35:                                               ; preds = %32
  %.val.i.i.i.i6 = load i32, ptr %4, align 4, !tbaa !21
  %36 = icmp sgt i32 %.val.i.i.i.i6, 0
  br i1 %36, label %37, label %39, !prof !24

37:                                               ; preds = %35
  %38 = add nuw nsw i32 %.val.i.i.i.i6, 1
  store i32 %38, ptr %4, align 4, !tbaa !21
  br label %_ZN4lean4exprC2ERKS0_.exit

39:                                               ; preds = %35
  %.not.i.i.i.i7 = icmp eq i32 %.val.i.i.i.i6, 0
  br i1 %.not.i.i.i.i7, label %_ZN4lean4exprC2ERKS0_.exit, label %40

40:                                               ; preds = %39
  tail call void @lean_inc_ref_cold(ptr noundef nonnull %4)
  br label %_ZN4lean4exprC2ERKS0_.exit

_ZN4lean4exprC2ERKS0_.exit:                       ; preds = %40, %39, %37, %32, %_ZN4lean8mk_mdataERKNS_8list_refINS_8pair_refINS_4nameENS_10data_valueEEEEERKNS_4exprE.exit
  ret void
}